target datalayout = "e-m:e-p270:32:32-p271:32:32-p272:64:64-i64:64-i128:128-f80:128-n8:16:32:64-S128"
target triple = "x86_64-pc-linux-gnu"

%struct.SDL_Keyboard = type { ptr, i16, [512 x i8], [512 x i8], ptr, i32, i8, i64, i32 }
%struct.SDL_Keymap = type { ptr, ptr, i8, i8, i8, i8, i8 }

@SDL_keyboard = internal global %struct.SDL_Keyboard zeroinitializer, align 8

; Function Attrs: nounwind uwtable
define internal i32 @SDL_ConvertNumpadKeycode(i32 noundef %0, i1 noundef zeroext %1) #0 {
  %3 = alloca i32, align 4
  %4 = alloca i32, align 4
  %5 = alloca i8, align 1
  store i32 %0, ptr %4, align 4
  %6 = zext i1 %1 to i8
  store i8 %6, ptr %5, align 1
  %7 = load i32, ptr %4, align 4
  switch i32 %7, label %82 [
    i32 1073741908, label %8
    i32 1073741909, label %9
    i32 1073741910, label %10
    i32 1073741911, label %11
    i32 1073741912, label %12
    i32 1073741913, label %13
    i32 1073741914, label %17
    i32 1073741915, label %21
    i32 1073741916, label %25
    i32 1073741917, label %29
    i32 1073741918, label %33
    i32 1073741919, label %37
    i32 1073741920, label %41
    i32 1073741921, label %45
    i32 1073741922, label %49
    i32 1073741923, label %53
    i32 1073741927, label %57
    i32 1073741957, label %58
    i32 1073741958, label %59
    i32 1073742006, label %60
    i32 1073742007, label %61
    i32 1073742008, label %62
    i32 1073742009, label %63
    i32 1073742010, label %64
    i32 1073742011, label %65
    i32 1073742012, label %66
    i32 1073742013, label %67
    i32 1073742014, label %68
    i32 1073742015, label %69
    i32 1073742016, label %70
    i32 1073742017, label %71
    i32 1073742020, label %72
    i32 1073742021, label %73
    i32 1073742022, label %74
    i32 1073742023, label %75
    i32 1073742027, label %76
    i32 1073742028, label %77
    i32 1073742029, label %78
    i32 1073742030, label %79
    i32 1073742031, label %80
    i32 1073742039, label %81
  ]

8:                                                ; preds = %2
  store i32 47, ptr %3, align 4
  br label %84

9:                                                ; preds = %2
  store i32 42, ptr %3, align 4
  br label %84

10:                                               ; preds = %2
  store i32 45, ptr %3, align 4
  br label %84

11:                                               ; preds = %2
  store i32 43, ptr %3, align 4
  br label %84

12:                                               ; preds = %2
  store i32 13, ptr %3, align 4
  br label %84

13:                                               ; preds = %2
  %14 = load i8, ptr %5, align 1, !range !3, !noundef !4
  %15 = trunc i8 %14 to i1
  %16 = select i1 %15, i32 49, i32 1073741901
  store i32 %16, ptr %3, align 4
  br label %84

17:                                               ; preds = %2
  %18 = load i8, ptr %5, align 1, !range !3, !noundef !4
  %19 = trunc i8 %18 to i1
  %20 = select i1 %19, i32 50, i32 1073741905
  store i32 %20, ptr %3, align 4
  br label %84

21:                                               ; preds = %2
  %22 = load i8, ptr %5, align 1, !range !3, !noundef !4
  %23 = trunc i8 %22 to i1
  %24 = select i1 %23, i32 51, i32 1073741902
  store i32 %24, ptr %3, align 4
  br label %84

25:                                               ; preds = %2
  %26 = load i8, ptr %5, align 1, !range !3, !noundef !4
  %27 = trunc i8 %26 to i1
  %28 = select i1 %27, i32 52, i32 1073741904
  store i32 %28, ptr %3, align 4
  br label %84

29:                                               ; preds = %2
  %30 = load i8, ptr %5, align 1, !range !3, !noundef !4
  %31 = trunc i8 %30 to i1
  %32 = select i1 %31, i32 53, i32 1073741980
  store i32 %32, ptr %3, align 4
  br label %84

33:                                               ; preds = %2
  %34 = load i8, ptr %5, align 1, !range !3, !noundef !4
  %35 = trunc i8 %34 to i1
  %36 = select i1 %35, i32 54, i32 1073741903
  store i32 %36, ptr %3, align 4
  br label %84

37:                                               ; preds = %2
  %38 = load i8, ptr %5, align 1, !range !3, !noundef !4
  %39 = trunc i8 %38 to i1
  %40 = select i1 %39, i32 55, i32 1073741898
  store i32 %40, ptr %3, align 4
  br label %84

41:                                               ; preds = %2
  %42 = load i8, ptr %5, align 1, !range !3, !noundef !4
  %43 = trunc i8 %42 to i1
  %44 = select i1 %43, i32 56, i32 1073741906
  store i32 %44, ptr %3, align 4
  br label %84

45:                                               ; preds = %2
  %46 = load i8, ptr %5, align 1, !range !3, !noundef !4
  %47 = trunc i8 %46 to i1
  %48 = select i1 %47, i32 57, i32 1073741899
  store i32 %48, ptr %3, align 4
  br label %84

49:                                               ; preds = %2
  %50 = load i8, ptr %5, align 1, !range !3, !noundef !4
  %51 = trunc i8 %50 to i1
  %52 = select i1 %51, i32 48, i32 1073741897
  store i32 %52, ptr %3, align 4
  br label %84

53:                                               ; preds = %2
  %54 = load i8, ptr %5, align 1, !range !3, !noundef !4
  %55 = trunc i8 %54 to i1
  %56 = select i1 %55, i32 46, i32 127
  store i32 %56, ptr %3, align 4
  br label %84

57:                                               ; preds = %2
  store i32 61, ptr %3, align 4
  br label %84

58:                                               ; preds = %2
  store i32 44, ptr %3, align 4
  br label %84

59:                                               ; preds = %2
  store i32 61, ptr %3, align 4
  br label %84

60:                                               ; preds = %2
  store i32 40, ptr %3, align 4
  br label %84

61:                                               ; preds = %2
  store i32 41, ptr %3, align 4
  br label %84

62:                                               ; preds = %2
  store i32 123, ptr %3, align 4
  br label %84

63:                                               ; preds = %2
  store i32 125, ptr %3, align 4
  br label %84

64:                                               ; preds = %2
  store i32 9, ptr %3, align 4
  br label %84

65:                                               ; preds = %2
  store i32 8, ptr %3, align 4
  br label %84

66:                                               ; preds = %2
  store i32 97, ptr %3, align 4
  br label %84

67:                                               ; preds = %2
  store i32 98, ptr %3, align 4
  br label %84

68:                                               ; preds = %2
  store i32 99, ptr %3, align 4
  br label %84

69:                                               ; preds = %2
  store i32 100, ptr %3, align 4
  br label %84

70:                                               ; preds = %2
  store i32 101, ptr %3, align 4
  br label %84

71:                                               ; preds = %2
  store i32 102, ptr %3, align 4
  br label %84

72:                                               ; preds = %2
  store i32 37, ptr %3, align 4
  br label %84

73:                                               ; preds = %2
  store i32 60, ptr %3, align 4
  br label %84

74:                                               ; preds = %2
  store i32 62, ptr %3, align 4
  br label %84

75:                                               ; preds = %2
  store i32 38, ptr %3, align 4
  br label %84

76:                                               ; preds = %2
  store i32 58, ptr %3, align 4
  br label %84

77:                                               ; preds = %2
  store i32 35, ptr %3, align 4
  br label %84

78:                                               ; preds = %2
  store i32 32, ptr %3, align 4
  br label %84

79:                                               ; preds = %2
  store i32 64, ptr %3, align 4
  br label %84

80:                                               ; preds = %2
  store i32 33, ptr %3, align 4
  br label %84

81:                                               ; preds = %2
  store i32 177, ptr %3, align 4
  br label %84

82:                                               ; preds = %2
  %83 = load i32, ptr %4, align 4
  store i32 %83, ptr %3, align 4
  br label %84

84:                                               ; preds = %82, %81, %80, %79, %78, %77, %76, %75, %74, %73, %72, %71, %70, %69, %68, %67, %66, %65, %64, %63, %62, %61, %60, %59, %58, %57, %53, %49, %45, %41, %37, %33, %29, %25, %21, %17, %13, %12, %11, %10, %9, %8
  %85 = load i32, ptr %3, align 4
  ret i32 %85
}

; Function Attrs: nounwind uwtable
define hidden ptr @SDL_GetCurrentKeymap() #0 {
  %1 = alloca ptr, align 8
  %2 = alloca ptr, align 8
  %3 = alloca ptr, align 8
  %4 = alloca i32, align 4
  call void @llvm.lifetime.start.p0(i64 8, ptr %2) #6
  store ptr @SDL_keyboard, ptr %2, align 8
  call void @llvm.lifetime.start.p0(i64 8, ptr %3) #6
  %5 = load ptr, ptr getelementptr inbounds nuw (%struct.SDL_Keyboard, ptr @SDL_keyboard, i32 0, i32 4), align 8
  store ptr %5, ptr %3, align 8
  %6 = load ptr, ptr %3, align 8
  %7 = icmp ne ptr %6, null
  br i1 %7, label %8, label %14

8:                                                ; preds = %0
  %9 = load ptr, ptr %3, align 8
  %10 = getelementptr inbounds nuw %struct.SDL_Keymap, ptr %9, i32 0, i32 6
  %11 = load i8, ptr %10, align 4, !range !3, !noundef !4
  %12 = trunc i8 %11 to i1
  br i1 %12, label %13, label %14

13:                                               ; preds = %8
  store ptr null, ptr %1, align 8
  store i32 1, ptr %4, align 4
  br label %33

14:                                               ; preds = %8, %0
  %15 = load ptr, ptr %2, align 8
  %16 = getelementptr inbounds nuw %struct.SDL_Keyboard, ptr %15, i32 0, i32 5
  %17 = load i32, ptr %16, align 8
  %18 = and i32 %17, 4
  %19 = icmp ne i32 %18, 0
  br i1 %19, label %20, label %29

20:                                               ; preds = %14
  %21 = load ptr, ptr %3, align 8
  %22 = icmp ne ptr %21, null
  br i1 %22, label %23, label %29

23:                                               ; preds = %20
  %24 = load ptr, ptr %3, align 8
  %25 = getelementptr inbounds nuw %struct.SDL_Keymap, ptr %24, i32 0, i32 5
  %26 = load i8, ptr %25, align 1, !range !3, !noundef !4
  %27 = trunc i8 %26 to i1
  br i1 %27, label %29, label %28

28:                                               ; preds = %23
  store ptr null, ptr %1, align 8
  store i32 1, ptr %4, align 4
  br label %33

29:                                               ; preds = %23, %20, %14
  %30 = load ptr, ptr %2, align 8
  %31 = getelementptr inbounds nuw %struct.SDL_Keyboard, ptr %30, i32 0, i32 4
  %32 = load ptr, ptr %31, align 8
  store ptr %32, ptr %1, align 8
  store i32 1, ptr %4, align 4
  br label %33

33:                                               ; preds = %29, %28, %13
  call void @llvm.lifetime.end.p0(i64 8, ptr %3) #6
  call void @llvm.lifetime.end.p0(i64 8, ptr %2) #6
  %34 = load ptr, ptr %1, align 8
  ret ptr %34
}

; Function Attrs: nounwind uwtable
define hidden i32 @SDL_GetKeyFromScancode_REAL(i32 noundef %0, i16 noundef zeroext %1, i1 noundef zeroext %2) #0 {
  %4 = alloca i32, align 4
  %5 = alloca i32, align 4
  %6 = alloca i16, align 2
  %7 = alloca i8, align 1
  %8 = alloca ptr, align 8
  %9 = alloca ptr, align 8
  %10 = alloca i8, align 1
  %11 = alloca i32, align 4
  %12 = alloca i32, align 4
  store i32 %0, ptr %5, align 4
  store i16 %1, ptr %6, align 2
  %13 = zext i1 %2 to i8
  store i8 %13, ptr %7, align 1
  call void @llvm.lifetime.start.p0(i64 8, ptr %8) #6
  store ptr @SDL_keyboard, ptr %8, align 8
  %14 = load i8, ptr %7, align 1, !range !3, !noundef !4
  %15 = trunc i8 %14 to i1
  br i1 %15, label %16, label %64

16:                                               ; preds = %3
  call void @llvm.lifetime.start.p0(i64 8, ptr %9) #6
  %17 = call ptr @SDL_GetCurrentKeymap()
  store ptr %17, ptr %9, align 8
  call void @llvm.lifetime.start.p0(i64 1, ptr %10) #6
  %18 = load i16, ptr %6, align 2
  %19 = zext i16 %18 to i32
  %20 = and i32 %19, 4096
  %21 = icmp ne i32 %20, 0
  %22 = zext i1 %21 to i8
  store i8 %22, ptr %10, align 1
  call void @llvm.lifetime.start.p0(i64 4, ptr %11) #6
  store i16 0, ptr %6, align 2
  %23 = load ptr, ptr %8, align 8
  %24 = getelementptr inbounds nuw %struct.SDL_Keyboard, ptr %23, i32 0, i32 5
  %25 = load i32, ptr %24, align 8
  %26 = and i32 %25, 2
  %27 = icmp ne i32 %26, 0
  br i1 %27, label %28, label %47

28:                                               ; preds = %16
  %29 = load ptr, ptr %9, align 8
  %30 = icmp ne ptr %29, null
  br i1 %30, label %31, label %47

31:                                               ; preds = %28
  %32 = load ptr, ptr %9, align 8
  %33 = getelementptr inbounds nuw %struct.SDL_Keymap, ptr %32, i32 0, i32 4
  %34 = load i8, ptr %33, align 2, !range !3, !noundef !4
  %35 = trunc i8 %34 to i1
  br i1 %35, label %36, label %47

36:                                               ; preds = %31
  %37 = load i32, ptr %5, align 4
  %38 = icmp uge i32 %37, 30
  br i1 %38, label %39, label %47

39:                                               ; preds = %36
  %40 = load i32, ptr %5, align 4
  %41 = icmp ule i32 %40, 39
  br i1 %41, label %42, label %47

42:                                               ; preds = %39
  %43 = load i16, ptr %6, align 2
  %44 = zext i16 %43 to i32
  %45 = or i32 %44, 3
  %46 = trunc i32 %45 to i16
  store i16 %46, ptr %6, align 2
  br label %47

47:                                               ; preds = %42, %39, %36, %31, %28, %16
  %48 = load ptr, ptr %9, align 8
  %49 = load i32, ptr %5, align 4
  %50 = load i16, ptr %6, align 2
  %51 = call i32 @SDL_GetKeymapKeycode(ptr noundef %48, i32 noundef %49, i16 noundef zeroext %50)
  store i32 %51, ptr %11, align 4
  %52 = load ptr, ptr %8, align 8
  %53 = getelementptr inbounds nuw %struct.SDL_Keyboard, ptr %52, i32 0, i32 5
  %54 = load i32, ptr %53, align 8
  %55 = and i32 %54, 1
  %56 = icmp ne i32 %55, 0
  br i1 %56, label %57, label %62

57:                                               ; preds = %47
  %58 = load i32, ptr %11, align 4
  %59 = load i8, ptr %10, align 1, !range !3, !noundef !4
  %60 = trunc i8 %59 to i1
  %61 = call i32 @SDL_ConvertNumpadKeycode(i32 noundef %58, i1 noundef zeroext %60)
  store i32 %61, ptr %11, align 4
  br label %62

62:                                               ; preds = %57, %47
  %63 = load i32, ptr %11, align 4
  store i32 %63, ptr %4, align 4
  store i32 1, ptr %12, align 4
  call void @llvm.lifetime.end.p0(i64 4, ptr %11) #6
  call void @llvm.lifetime.end.p0(i64 1, ptr %10) #6
  call void @llvm.lifetime.end.p0(i64 8, ptr %9) #6
  br label %71

64:                                               ; preds = %3
  %65 = load ptr, ptr %8, align 8
  %66 = getelementptr inbounds nuw %struct.SDL_Keyboard, ptr %65, i32 0, i32 4
  %67 = load ptr, ptr %66, align 8
  %68 = load i32, ptr %5, align 4
  %69 = load i16, ptr %6, align 2
  %70 = call i32 @SDL_GetKeymapKeycode(ptr noundef %67, i32 noundef %68, i16 noundef zeroext %69)
  store i32 %70, ptr %4, align 4
  store i32 1, ptr %12, align 4
  br label %71

71:                                               ; preds = %64, %62
  call void @llvm.lifetime.end.p0(i64 8, ptr %8) #6
  %72 = load i32, ptr %4, align 4
  ret i32 %72
}