; Function Attrs: nounwind uwtable
define hidden i32 @SDL_GetKeyFromScancode_REAL(i32 noundef %0, i16 noundef zeroext %1, i1 noundef zeroext %2) local_unnamed_addr #0 {
  %4 = load ptr, ptr getelementptr inbounds nuw (i8, ptr @SDL_keyboard, i64 1040), align 8
  br i1 %2, label %5, label %78

5:                                                ; preds = %3
  %.not.i = icmp eq ptr %4, null
  %.pre.pre = load i32, ptr getelementptr inbounds nuw (i8, ptr @SDL_keyboard, i64 1048), align 8
  br i1 %.not.i, label %SDL_GetCurrentKeymap.exit.thread34, label %6

6:                                                ; preds = %5
  %7 = getelementptr inbounds nuw i8, ptr %4, i64 20
  %8 = load i8, ptr %7, align 4, !range !6, !noundef !7
  %9 = trunc nuw i8 %8 to i1
  br i1 %9, label %SDL_GetCurrentKeymap.exit.thread34, label %10

10:                                               ; preds = %6
  %11 = and i32 %.pre.pre, 4
  %.not10.i = icmp eq i32 %11, 0
  br i1 %.not10.i, label %SDL_GetCurrentKeymap.exit, label %12

12:                                               ; preds = %10
  %13 = getelementptr inbounds nuw i8, ptr %4, i64 19
  %14 = load i8, ptr %13, align 1, !range !6, !noundef !7
  %15 = trunc nuw i8 %14 to i1
  br i1 %15, label %SDL_GetCurrentKeymap.exit, label %SDL_GetCurrentKeymap.exit.thread34

SDL_GetCurrentKeymap.exit:                        ; preds = %10, %12
  %16 = and i32 %.pre.pre, 2
  %.not37 = icmp eq i32 %16, 0
  br i1 %.not37, label %SDL_GetCurrentKeymap.exit.thread34, label %17

17:                                               ; preds = %SDL_GetCurrentKeymap.exit
  %18 = getelementptr inbounds nuw i8, ptr %4, i64 18
  %19 = load i8, ptr %18, align 2, !range !6, !noundef !7
  %20 = trunc nuw i8 %19 to i1
  %21 = add i32 %0, -30
  %22 = icmp ult i32 %21, 10
  %or.cond5 = and i1 %22, %20
  %spec.select = select i1 %or.cond5, i16 3, i16 0
  br label %SDL_GetCurrentKeymap.exit.thread34

SDL_GetCurrentKeymap.exit.thread34:               ; preds = %12, %6, %5, %17, %SDL_GetCurrentKeymap.exit
  %.0.i32 = phi ptr [ %4, %SDL_GetCurrentKeymap.exit ], [ %4, %17 ], [ null, %5 ], [ null, %6 ], [ null, %12 ]
  %.024 = phi i16 [ 0, %SDL_GetCurrentKeymap.exit ], [ %spec.select, %17 ], [ 0, %5 ], [ 0, %6 ], [ 0, %12 ]
  %.not2733.in = and i16 %1, 4096
  %.not2733 = icmp eq i16 %.not2733.in, 0
  %23 = tail call i32 @SDL_GetKeymapKeycode(ptr noundef %.0.i32, i32 noundef %0, i16 noundef zeroext %.024) #13
  %24 = load i32, ptr getelementptr inbounds nuw (i8, ptr @SDL_keyboard, i64 1048), align 8
  %25 = and i32 %24, 1
  %.not = icmp eq i32 %25, 0
  br i1 %.not, label %SDL_ConvertNumpadKeycode.exit, label %26

26:                                               ; preds = %SDL_GetCurrentKeymap.exit.thread34
  switch i32 %23, label %77 [
    i32 1073741908, label %SDL_ConvertNumpadKeycode.exit
    i32 1073741909, label %27
    i32 1073741910, label %28
    i32 1073741911, label %29
    i32 1073741912, label %30
    i32 1073741913, label %31
    i32 1073741914, label %33
    i32 1073741915, label %35
    i32 1073741916, label %37
    i32 1073741917, label %39
    i32 1073741918, label %41
    i32 1073741919, label %43
    i32 1073741920, label %45
    i32 1073741921, label %47
    i32 1073741922, label %49
    i32 1073741923, label %51
    i32 1073741927, label %53
    i32 1073741957, label %54
    i32 1073741958, label %53
    i32 1073742006, label %55
    i32 1073742007, label %56
    i32 1073742008, label %57
    i32 1073742009, label %58
    i32 1073742010, label %59
    i32 1073742011, label %60
    i32 1073742012, label %61
    i32 1073742013, label %62
    i32 1073742014, label %63
    i32 1073742015, label %64
    i32 1073742016, label %65
    i32 1073742017, label %66
    i32 1073742020, label %67
    i32 1073742021, label %68
    i32 1073742022, label %69
    i32 1073742023, label %70
    i32 1073742027, label %71
    i32 1073742028, label %72
    i32 1073742029, label %73
    i32 1073742030, label %74
    i32 1073742031, label %75
    i32 1073742039, label %76
  ]

27:                                               ; preds = %26
  br label %SDL_ConvertNumpadKeycode.exit

28:                                               ; preds = %26
  br label %SDL_ConvertNumpadKeycode.exit

29:                                               ; preds = %26
  br label %SDL_ConvertNumpadKeycode.exit

30:                                               ; preds = %26
  br label %SDL_ConvertNumpadKeycode.exit

31:                                               ; preds = %26
  %32 = select i1 %.not2733, i32 1073741901, i32 49
  br label %SDL_ConvertNumpadKeycode.exit

33:                                               ; preds = %26
  %34 = select i1 %.not2733, i32 1073741905, i32 50
  br label %SDL_ConvertNumpadKeycode.exit

35:                                               ; preds = %26
  %36 = select i1 %.not2733, i32 1073741902, i32 51
  br label %SDL_ConvertNumpadKeycode.exit

37:                                               ; preds = %26
  %38 = select i1 %.not2733, i32 1073741904, i32 52
  br label %SDL_ConvertNumpadKeycode.exit

39:                                               ; preds = %26
  %40 = select i1 %.not2733, i32 1073741980, i32 53
  br label %SDL_ConvertNumpadKeycode.exit

41:                                               ; preds = %26
  %42 = select i1 %.not2733, i32 1073741903, i32 54
  br label %SDL_ConvertNumpadKeycode.exit

43:                                               ; preds = %26
  %44 = select i1 %.not2733, i32 1073741898, i32 55
  br label %SDL_ConvertNumpadKeycode.exit

45:                                               ; preds = %26
  %46 = select i1 %.not2733, i32 1073741906, i32 56
  br label %SDL_ConvertNumpadKeycode.exit

47:                                               ; preds = %26
  %48 = select i1 %.not2733, i32 1073741899, i32 57
  br label %SDL_ConvertNumpadKeycode.exit

49:                                               ; preds = %26
  %50 = select i1 %.not2733, i32 1073741897, i32 48
  br label %SDL_ConvertNumpadKeycode.exit

51:                                               ; preds = %26
  %52 = select i1 %.not2733, i32 127, i32 46
  br label %SDL_ConvertNumpadKeycode.exit

53:                                               ; preds = %26, %26
  br label %SDL_ConvertNumpadKeycode.exit

54:                                               ; preds = %26
  br label %SDL_ConvertNumpadKeycode.exit

55:                                               ; preds = %26
  br label %SDL_ConvertNumpadKeycode.exit

56:                                               ; preds = %26
  br label %SDL_ConvertNumpadKeycode.exit

57:                                               ; preds = %26
  br label %SDL_ConvertNumpadKeycode.exit

58:                                               ; preds = %26
  br label %SDL_ConvertNumpadKeycode.exit

59:                                               ; preds = %26
  br label %SDL_ConvertNumpadKeycode.exit

60:                                               ; preds = %26
  br label %SDL_ConvertNumpadKeycode.exit

61:                                               ; preds = %26
  br label %SDL_ConvertNumpadKeycode.exit

62:                                               ; preds = %26
  br label %SDL_ConvertNumpadKeycode.exit

63:                                               ; preds = %26
  br label %SDL_ConvertNumpadKeycode.exit

64:                                               ; preds = %26
  br label %SDL_ConvertNumpadKeycode.exit

65:                                               ; preds = %26
  br label %SDL_ConvertNumpadKeycode.exit

66:                                               ; preds = %26
  br label %SDL_ConvertNumpadKeycode.exit

67:                                               ; preds = %26
  br label %SDL_ConvertNumpadKeycode.exit

68:                                               ; preds = %26
  br label %SDL_ConvertNumpadKeycode.exit

69:                                               ; preds = %26
  br label %SDL_ConvertNumpadKeycode.exit

70:                                               ; preds = %26
  br label %SDL_ConvertNumpadKeycode.exit

71:                                               ; preds = %26
  br label %SDL_ConvertNumpadKeycode.exit

72:                                               ; preds = %26
  br label %SDL_ConvertNumpadKeycode.exit

73:                                               ; preds = %26
  br label %SDL_ConvertNumpadKeycode.exit

74:                                               ; preds = %26
  br label %SDL_ConvertNumpadKeycode.exit

75:                                               ; preds = %26
  br label %SDL_ConvertNumpadKeycode.exit

76:                                               ; preds = %26
  br label %SDL_ConvertNumpadKeycode.exit

77:                                               ; preds = %26
  br label %SDL_ConvertNumpadKeycode.exit

78:                                               ; preds = %3
  %79 = tail call i32 @SDL_GetKeymapKeycode(ptr noundef %4, i32 noundef %0, i16 noundef zeroext %1) #13
  br label %SDL_ConvertNumpadKeycode.exit

SDL_ConvertNumpadKeycode.exit:                    ; preds = %77, %76, %75, %74, %73, %72, %71, %70, %69, %68, %67, %66, %65, %64, %63, %62, %61, %60, %59, %58, %57, %56, %55, %54, %53, %51, %49, %47, %45, %43, %41, %39, %37, %35, %33, %31, %30, %29, %28, %27, %26, %SDL_GetCurrentKeymap.exit.thread34, %78
  %.023 = phi i32 [ %79, %78 ], [ %23, %SDL_GetCurrentKeymap.exit.thread34 ], [ %23, %77 ], [ 177, %76 ], [ 33, %75 ], [ 64, %74 ], [ 32, %73 ], [ 35, %72 ], [ 58, %71 ], [ 38, %70 ], [ 62, %69 ], [ 60, %68 ], [ 37, %67 ], [ 102, %66 ], [ 101, %65 ], [ 100, %64 ], [ 99, %63 ], [ 98, %62 ], [ 97, %61 ], [ 8, %60 ], [ 9, %59 ], [ 125, %58 ], [ 123, %57 ], [ 41, %56 ], [ 40, %55 ], [ 44, %54 ], [ 61, %53 ], [ %52, %51 ], [ %50, %49 ], [ %48, %47 ], [ %46, %45 ], [ %44, %43 ], [ %42, %41 ], [ %40, %39 ], [ %38, %37 ], [ %36, %35 ], [ %34, %33 ], [ %32, %31 ], [ 13, %30 ], [ 43, %29 ], [ 45, %28 ], [ 42, %27 ], [ 47, %26 ]
  ret i32 %.023
}